target datalayout = "e-m:e-p270:32:32-p271:32:32-p272:64:64-i64:64-i128:128-f80:128-n8:16:32:64-S128"
target triple = "x86_64-pc-linux-gnu"

%struct.H5HF_indirect_t = type { %struct.H5C_cache_entry_t, i64, ptr, ptr, ptr, i32, i64, i64, i32, i32, i32, i32, ptr, i8, i64, ptr, ptr }
%struct.H5C_cache_entry_t = type { ptr, i64, i64, ptr, i8, ptr, i8, i8, i8, i8, i32, i8, i8, i8, i8, i8, i32, ptr, i32, i32, i32, i32, i32, i8, i8, ptr, ptr, ptr, ptr, ptr, ptr, i8, i32, i8, i64, ptr, i64, i64, i32, i8, i32, i32, i8, ptr, ptr, ptr }

@H5_H5HF_indirect_t_reg_free_list = global { i8, [3 x i8], i32, i32, [4 x i8], ptr, i64, ptr } { i8 0, [3 x i8] zeroinitializer, i32 0, i32 0, [4 x i8] zeroinitializer, ptr @.str, i64 360, ptr null }, align 8
@H5_H5HF_indirect_ent_t_seq_free_list = global { { i8, [3 x i8], i32, i32, [4 x i8], i64, ptr, ptr }, i64 } { { i8, [3 x i8], i32, i32, [4 x i8], i64, ptr, ptr } { i8 0, [3 x i8] zeroinitializer, i32 0, i32 0, [4 x i8] zeroinitializer, i64 0, ptr @.str.1, ptr null }, i64 8 }, align 8
@H5_H5HF_indirect_filt_ent_t_seq_free_list = global { { i8, [3 x i8], i32, i32, [4 x i8], i64, ptr, ptr }, i64 } { { i8, [3 x i8], i32, i32, [4 x i8], i64, ptr, ptr } { i8 0, [3 x i8] zeroinitializer, i32 0, i32 0, [4 x i8] zeroinitializer, i64 0, ptr @.str.2, ptr null }, i64 16 }, align 8
@H5_H5HF_indirect_ptr_t_seq_free_list = global { { i8, [3 x i8], i32, i32, [4 x i8], i64, ptr, ptr }, i64 } { { i8, [3 x i8], i32, i32, [4 x i8], i64, ptr, ptr } { i8 0, [3 x i8] zeroinitializer, i32 0, i32 0, [4 x i8] zeroinitializer, i64 0, ptr @.str.3, ptr null }, i64 8 }, align 8
@H5HF_init_g = external global i8, align 1
@H5_libterm_g = external global i8, align 1
@.str.4 = private unnamed_addr constant [104 x i8] c"generated/home/dtcxzyw/WorkSpace/Projects/compilers/llvm-opt-benchmark/bench/hdf5/hdf5/src/H5HFiblock.c\00", align 1
@H5E_HEAP_g = external global i64, align 8
@H5E_CANTDEC_g = external global i64, align 8
@.str.34 = private unnamed_addr constant [57 x i8] c"can't decrement reference count on shared indirect block\00", align 1
@__func__.H5HF__man_iblock_dest = private unnamed_addr constant [22 x i8] c"H5HF__man_iblock_dest\00", align 1
@.str.49 = private unnamed_addr constant [54 x i8] c"can't decrement reference count on shared heap header\00", align 1

; Function Attrs: nounwind uwtable
define i32 @H5HF__man_iblock_dest(ptr noundef %0) #0 {
  %2 = alloca ptr, align 8
  %3 = alloca i32, align 4
  %4 = alloca i8, align 1
  store ptr %0, ptr %2, align 8, !tbaa !3
  call void @llvm.lifetime.start.p0(i64 4, ptr %3) #7
  store i32 0, ptr %3, align 4, !tbaa !8
  call void @llvm.lifetime.start.p0(i64 1, ptr %4) #7
  store i8 0, ptr %4, align 1, !tbaa !10
  %5 = load i8, ptr @H5HF_init_g, align 1, !tbaa !10, !range !12, !noundef !13
  %6 = trunc i8 %5 to i1
  br i1 %6, label %11, label %7

7:                                                ; preds = %1
  %8 = load i8, ptr @H5_libterm_g, align 1, !tbaa !10, !range !12, !noundef !13
  %9 = trunc i8 %8 to i1
  %10 = xor i1 %9, true
  br label %11

11:                                               ; preds = %7, %1
  %12 = phi i1 [ true, %1 ], [ %10, %7 ]
  %13 = xor i1 %12, true
  %14 = xor i1 %13, true
  %15 = zext i1 %14 to i32
  %16 = sext i32 %15 to i64
  %17 = call i64 @llvm.expect.i64(i64 %16, i64 1)
  %18 = icmp ne i64 %17, 0
  br i1 %18, label %19, label %115

19:                                               ; preds = %11
  %20 = load ptr, ptr %2, align 8, !tbaa !3
  %21 = getelementptr inbounds nuw %struct.H5HF_indirect_t, ptr %20, i32 0, i32 2
  %22 = load ptr, ptr %21, align 8, !tbaa !31
  %23 = call i32 @H5HF__hdr_decr(ptr noundef %22)
  %24 = icmp slt i32 %23, 0
  br i1 %24, label %25, label %44

25:                                               ; preds = %19
  br label %26

26:                                               ; preds = %25
  br label %27

27:                                               ; preds = %26
  br label %28

28:                                               ; preds = %27
  %29 = load i64, ptr @H5E_HEAP_g, align 8, !tbaa !28
  %30 = load i64, ptr @H5E_CANTDEC_g, align 8, !tbaa !28
  %31 = call i32 (ptr, ptr, i32, i64, i64, ptr, ...) @H5E_printf_stack(ptr noundef @.str.4, ptr noundef @__func__.H5HF__man_iblock_dest, i32 noundef 1819, i64 noundef %29, i64 noundef %30, ptr noundef @.str.49)
  br label %32

32:                                               ; preds = %28
  br label %33

33:                                               ; preds = %32
  store i8 1, ptr %4, align 1, !tbaa !10
  %34 = load i8, ptr %4, align 1, !tbaa !10, !range !12, !noundef !13
  %35 = trunc i8 %34 to i1
  %36 = zext i1 %35 to i8
  store i8 %36, ptr %4, align 1, !tbaa !10
  br label %37

37:                                               ; preds = %33
  br label %38

38:                                               ; preds = %37
  br label %39

39:                                               ; preds = %38
  store i32 -1, ptr %3, align 4, !tbaa !8
  br label %114

40:                                               ; No predecessors!
  br label %41

41:                                               ; preds = %40
  br label %42

42:                                               ; preds = %41
  br label %43

43:                                               ; preds = %42
  br label %44

44:                                               ; preds = %43, %19
  %45 = load ptr, ptr %2, align 8, !tbaa !3
  %46 = getelementptr inbounds nuw %struct.H5HF_indirect_t, ptr %45, i32 0, i32 3
  %47 = load ptr, ptr %46, align 8, !tbaa !29
  %48 = icmp ne ptr %47, null
  br i1 %48, label %49, label %75

49:                                               ; preds = %44
  %50 = load ptr, ptr %2, align 8, !tbaa !3
  %51 = getelementptr inbounds nuw %struct.H5HF_indirect_t, ptr %50, i32 0, i32 3
  %52 = load ptr, ptr %51, align 8, !tbaa !29
  %53 = call i32 @H5HF__iblock_decr(ptr noundef %52)
  %54 = icmp slt i32 %53, 0
  br i1 %54, label %55, label %74

55:                                               ; preds = %49
  br label %56

56:                                               ; preds = %55
  br label %57

57:                                               ; preds = %56
  br label %58

58:                                               ; preds = %57
  %59 = load i64, ptr @H5E_HEAP_g, align 8, !tbaa !28
  %60 = load i64, ptr @H5E_CANTDEC_g, align 8, !tbaa !28
  %61 = call i32 (ptr, ptr, i32, i64, i64, ptr, ...) @H5E_printf_stack(ptr noundef @.str.4, ptr noundef @__func__.H5HF__man_iblock_dest, i32 noundef 1823, i64 noundef %59, i64 noundef %60, ptr noundef @.str.34)
  br label %62

62:                                               ; preds = %58
  br label %63

63:                                               ; preds = %62
  store i8 1, ptr %4, align 1, !tbaa !10
  %64 = load i8, ptr %4, align 1, !tbaa !10, !range !12, !noundef !13
  %65 = trunc i8 %64 to i1
  %66 = zext i1 %65 to i8
  store i8 %66, ptr %4, align 1, !tbaa !10
  br label %67

67:                                               ; preds = %63
  br label %68

68:                                               ; preds = %67
  br label %69

69:                                               ; preds = %68
  store i32 -1, ptr %3, align 4, !tbaa !8
  br label %114

70:                                               ; No predecessors!
  br label %71

71:                                               ; preds = %70
  br label %72

72:                                               ; preds = %71
  br label %73

73:                                               ; preds = %72
  br label %74

74:                                               ; preds = %73, %49
  br label %75

75:                                               ; preds = %74, %44
  %76 = load ptr, ptr %2, align 8, !tbaa !3
  %77 = getelementptr inbounds nuw %struct.H5HF_indirect_t, ptr %76, i32 0, i32 15
  %78 = load ptr, ptr %77, align 8, !tbaa !50
  %79 = icmp ne ptr %78, null
  br i1 %79, label %80, label %87

80:                                               ; preds = %75
  %81 = load ptr, ptr %2, align 8, !tbaa !3
  %82 = getelementptr inbounds nuw %struct.H5HF_indirect_t, ptr %81, i32 0, i32 15
  %83 = load ptr, ptr %82, align 8, !tbaa !50
  %84 = call ptr @H5FL_seq_free(ptr noundef @H5_H5HF_indirect_ent_t_seq_free_list, ptr noundef %83)
  %85 = load ptr, ptr %2, align 8, !tbaa !3
  %86 = getelementptr inbounds nuw %struct.H5HF_indirect_t, ptr %85, i32 0, i32 15
  store ptr %84, ptr %86, align 8, !tbaa !50
  br label %87

87:                                               ; preds = %80, %75
  %88 = load ptr, ptr %2, align 8, !tbaa !3
  %89 = getelementptr inbounds nuw %struct.H5HF_indirect_t, ptr %88, i32 0, i32 16
  %90 = load ptr, ptr %89, align 8, !tbaa !51
  %91 = icmp ne ptr %90, null
  br i1 %91, label %92, label %99

92:                                               ; preds = %87
  %93 = load ptr, ptr %2, align 8, !tbaa !3
  %94 = getelementptr inbounds nuw %struct.H5HF_indirect_t, ptr %93, i32 0, i32 16
  %95 = load ptr, ptr %94, align 8, !tbaa !51
  %96 = call ptr @H5FL_seq_free(ptr noundef @H5_H5HF_indirect_filt_ent_t_seq_free_list, ptr noundef %95)
  %97 = load ptr, ptr %2, align 8, !tbaa !3
  %98 = getelementptr inbounds nuw %struct.H5HF_indirect_t, ptr %97, i32 0, i32 16
  store ptr %96, ptr %98, align 8, !tbaa !51
  br label %99

99:                                               ; preds = %92, %87
  %100 = load ptr, ptr %2, align 8, !tbaa !3
  %101 = getelementptr inbounds nuw %struct.H5HF_indirect_t, ptr %100, i32 0, i32 12
  %102 = load ptr, ptr %101, align 8, !tbaa !45
  %103 = icmp ne ptr %102, null
  br i1 %103, label %104, label %111

104:                                              ; preds = %99
  %105 = load ptr, ptr %2, align 8, !tbaa !3
  %106 = getelementptr inbounds nuw %struct.H5HF_indirect_t, ptr %105, i32 0, i32 12
  %107 = load ptr, ptr %106, align 8, !tbaa !45
  %108 = call ptr @H5FL_seq_free(ptr noundef @H5_H5HF_indirect_ptr_t_seq_free_list, ptr noundef %107)
  %109 = load ptr, ptr %2, align 8, !tbaa !3
  %110 = getelementptr inbounds nuw %struct.H5HF_indirect_t, ptr %109, i32 0, i32 12
  store ptr %108, ptr %110, align 8, !tbaa !45
  br label %111

111:                                              ; preds = %104, %99
  %112 = load ptr, ptr %2, align 8, !tbaa !3
  %113 = call ptr @H5FL_reg_free(ptr noundef @H5_H5HF_indirect_t_reg_free_list, ptr noundef %112)
  store ptr %113, ptr %2, align 8, !tbaa !3
  br label %114

114:                                              ; preds = %111, %69, %39
  br label %115

115:                                              ; preds = %114, %11
  %116 = load i32, ptr %3, align 4, !tbaa !8
  call void @llvm.lifetime.end.p0(i64 1, ptr %4) #7
  call void @llvm.lifetime.end.p0(i64 4, ptr %3) #7
  ret i32 %116
}