; Function Attrs: nounwind uwtable
define range(i32 -1, 1) i32 @H5HF__man_iblock_dest(ptr noundef %0) local_unnamed_addr #0 {
  %2 = load i8, ptr @H5HF_init_g, align 1, !tbaa !3, !range !7, !noundef !8
  %3 = trunc nuw i8 %2 to i1
  %4 = load i8, ptr @H5_libterm_g, align 1, !range !7
  %5 = trunc nuw i8 %4 to i1
  %6 = xor i1 %5, true
  %7 = select i1 %3, i1 true, i1 %6
  br i1 %7, label %8, label %44, !prof !9

8:                                                ; preds = %1
  %9 = getelementptr inbounds nuw i8, ptr %0, i64 256
  %10 = load ptr, ptr %9, align 8, !tbaa !29
  %11 = tail call i32 @H5HF__hdr_decr(ptr noundef %10) #6
  %12 = icmp slt i32 %11, 0
  br i1 %12, label %13, label %17

13:                                               ; preds = %8
  %14 = load i64, ptr @H5E_HEAP_g, align 8, !tbaa !48
  %15 = load i64, ptr @H5E_CANTDEC_g, align 8, !tbaa !48
  %16 = tail call i32 (ptr, ptr, i32, i64, i64, ptr, ...) @H5E_printf_stack(ptr noundef nonnull @.str.4, ptr noundef nonnull @__func__.H5HF__man_iblock_dest, i32 noundef 1819, i64 noundef %14, i64 noundef %15, ptr noundef nonnull @.str.49) #6
  br label %44

17:                                               ; preds = %8
  %18 = getelementptr inbounds nuw i8, ptr %0, i64 264
  %19 = load ptr, ptr %18, align 8, !tbaa !27
  %.not = icmp eq ptr %19, null
  br i1 %.not, label %27, label %20

20:                                               ; preds = %17
  %21 = tail call i32 @H5HF__iblock_decr(ptr noundef nonnull %19)
  %22 = icmp slt i32 %21, 0
  br i1 %22, label %23, label %27

23:                                               ; preds = %20
  %24 = load i64, ptr @H5E_HEAP_g, align 8, !tbaa !48
  %25 = load i64, ptr @H5E_CANTDEC_g, align 8, !tbaa !48
  %26 = tail call i32 (ptr, ptr, i32, i64, i64, ptr, ...) @H5E_printf_stack(ptr noundef nonnull @.str.4, ptr noundef nonnull @__func__.H5HF__man_iblock_dest, i32 noundef 1823, i64 noundef %24, i64 noundef %25, ptr noundef nonnull @.str.34) #6
  br label %44

27:                                               ; preds = %20, %17
  %28 = getelementptr inbounds nuw i8, ptr %0, i64 344
  %29 = load ptr, ptr %28, align 8, !tbaa !50
  %.not19 = icmp eq ptr %29, null
  br i1 %.not19, label %32, label %30

30:                                               ; preds = %27
  %31 = tail call ptr @H5FL_seq_free(ptr noundef nonnull @H5_H5HF_indirect_ent_t_seq_free_list, ptr noundef nonnull %29) #6
  store ptr %31, ptr %28, align 8, !tbaa !50
  br label %32

32:                                               ; preds = %30, %27
  %33 = getelementptr inbounds nuw i8, ptr %0, i64 352
  %34 = load ptr, ptr %33, align 8, !tbaa !51
  %.not20 = icmp eq ptr %34, null
  br i1 %.not20, label %37, label %35

35:                                               ; preds = %32
  %36 = tail call ptr @H5FL_seq_free(ptr noundef nonnull @H5_H5HF_indirect_filt_ent_t_seq_free_list, ptr noundef nonnull %34) #6
  store ptr %36, ptr %33, align 8, !tbaa !51
  br label %37

37:                                               ; preds = %35, %32
  %38 = getelementptr inbounds nuw i8, ptr %0, i64 320
  %39 = load ptr, ptr %38, align 8, !tbaa !43
  %.not21 = icmp eq ptr %39, null
  br i1 %.not21, label %42, label %40

40:                                               ; preds = %37
  %41 = tail call ptr @H5FL_seq_free(ptr noundef nonnull @H5_H5HF_indirect_ptr_t_seq_free_list, ptr noundef nonnull %39) #6
  store ptr %41, ptr %38, align 8, !tbaa !43
  br label %42

42:                                               ; preds = %40, %37
  %43 = tail call ptr @H5FL_reg_free(ptr noundef nonnull @H5_H5HF_indirect_t_reg_free_list, ptr noundef nonnull %0) #6
  br label %44

44:                                               ; preds = %13, %23, %42, %1
  %.0 = phi i32 [ -1, %13 ], [ -1, %23 ], [ 0, %42 ], [ 0, %1 ]
  ret i32 %.0
}